; Function Attrs: nounwind uwtable
define internal noundef i32 @gitdiff_copysrc(ptr noundef readonly captures(none) %0, ptr noundef %1, ptr noundef captures(none) %2) #0 {
  %4 = getelementptr inbounds nuw i8, ptr %2, i64 64
  %5 = load i16, ptr %4, align 8
  %6 = or i16 %5, 8
  store i16 %6, ptr %4, align 8
  %7 = getelementptr inbounds nuw i8, ptr %2, i64 8
  %8 = load ptr, ptr %7, align 8, !tbaa !64
  tail call void @free(ptr noundef %8) #21
  %9 = load ptr, ptr %0, align 8, !tbaa !74
  %10 = getelementptr inbounds nuw i8, ptr %0, i64 12
  %11 = load i32, ptr %10, align 4, !tbaa !78
  %spec.select = tail call i32 @llvm.usub.sat.i32(i32 %11, i32 1)
  %12 = load i8, ptr %1, align 1, !tbaa !53
  %13 = icmp eq i8 %12, 34
  br i1 %13, label %14, label %16

14:                                               ; preds = %3
  %15 = tail call fastcc ptr @find_name_gnu(ptr noundef readonly %9, ptr noundef nonnull %1, i32 noundef %spec.select)
  %.not.not.i = icmp eq ptr %15, null
  br i1 %.not.not.i, label %16, label %find_name.exit

16:                                               ; preds = %14, %3
  %17 = tail call fastcc ptr @find_name_common(ptr noundef readonly %9, ptr noundef nonnull %1, ptr noundef null, i32 noundef %spec.select, ptr noundef null, i32 noundef 0)
  br label %find_name.exit

find_name.exit:                                   ; preds = %14, %16
  %.1.i = phi ptr [ %15, %14 ], [ %17, %16 ]
  store ptr %.1.i, ptr %7, align 8, !tbaa !64
  ret i32 0
}